; Function Attrs: mustprogress nounwind uwtable
define dso_local { ptr, i64 } @_ZN4llvm4yaml12ScalarTraitsINS0_5Hex64EvE5inputENS_9StringRefEPvRS2_(ptr %0, i64 %1, ptr noundef readnone captures(none) %2, ptr noundef nonnull writeonly align 8 captures(none) dereferenceable(8) %3) local_unnamed_addr #6 align 2 {
  %5 = alloca i64, align 8
  %6 = call noundef zeroext i1 @_ZN4llvm20getAsUnsignedIntegerENS_9StringRefEjRy(ptr %0, i64 %1, i32 noundef 0, ptr noundef nonnull align 8 dereferenceable(8) %5) #32
  br i1 %6, label %9, label %7

7:                                                ; preds = %4
  %8 = load i64, ptr %5, align 8
  store i64 %8, ptr %3, align 8
  br label %9

9:                                                ; preds = %4, %7
  %.sroa.4.0 = phi i64 [ 0, %7 ], [ 20, %4 ]
  %.sroa.0.0 = phi ptr [ null, %7 ], [ @.str.51, %4 ]
  %.fca.0.insert = insertvalue { ptr, i64 } poison, ptr %.sroa.0.0, 0
  %.fca.1.insert = insertvalue { ptr, i64 } %.fca.0.insert, i64 %.sroa.4.0, 1
  ret { ptr, i64 } %.fca.1.insert
}